; Function Attrs: mustprogress nounwind uwtable
define dso_local noundef zeroext i1 @_ZNK4llvm11MCAssembler11isThumbFuncEPKNS_8MCSymbolE(ptr noundef nonnull align 8 dereferenceable(372) %0, ptr noundef %1) local_unnamed_addr #0 align 2 {
  %3 = alloca %"class.llvm::MCValue", align 8
  %4 = alloca %"struct.std::pair", align 8
  %5 = getelementptr inbounds nuw i8, ptr %0, i64 80
  %6 = getelementptr inbounds i8, ptr %0, i64 88
  %7 = load ptr, ptr %6, align 8
  %8 = load ptr, ptr %5, align 8
  %9 = icmp eq ptr %7, %8
  br i1 %9, label %10, label %20

10:                                               ; preds = %2
  %11 = getelementptr inbounds i8, ptr %0, i64 100
  %12 = load i32, ptr %11, align 4
  %13 = zext i32 %12 to i64
  %14 = getelementptr inbounds ptr, ptr %8, i64 %13
  %.not1317.i.i = icmp eq i32 %12, 0
  br i1 %.not1317.i.i, label %._crit_edge.i.i, label %.lr.ph.i.i

.lr.ph.i.i:                                       ; preds = %10, %17
  %.01118.i.i = phi ptr [ %18, %17 ], [ %8, %10 ]
  %15 = load ptr, ptr %.01118.i.i, align 8
  %16 = icmp eq ptr %15, %1
  br i1 %16, label %_ZNK4llvm15SmallPtrSetImplIPKNS_8MCSymbolEE5countES3_.exit, label %17

17:                                               ; preds = %.lr.ph.i.i
  %18 = getelementptr inbounds i8, ptr %.01118.i.i, i64 8
  %.not13.i.i = icmp eq ptr %18, %14
  br i1 %.not13.i.i, label %._crit_edge.i.i, label %.lr.ph.i.i, !llvm.loop !4

._crit_edge.i.i:                                  ; preds = %17, %10
  %19 = getelementptr inbounds ptr, ptr %7, i64 %13
  br label %_ZNK4llvm15SmallPtrSetImplIPKNS_8MCSymbolEE5countES3_.exit

20:                                               ; preds = %2
  %21 = tail call noundef ptr @_ZNK4llvm19SmallPtrSetImplBase6doFindEPKv(ptr noundef nonnull align 8 dereferenceable(28) %5, ptr noundef %1) #11
  %.not.i.i = icmp eq ptr %21, null
  %.pre.i = load ptr, ptr %6, align 8
  %.pre4.i = load ptr, ptr %5, align 8
  br i1 %.not.i.i, label %22, label %._ZNK4llvm19SmallPtrSetImplBase8find_impEPKv.exit_crit_edge.i

._ZNK4llvm19SmallPtrSetImplBase8find_impEPKv.exit_crit_edge.i: ; preds = %20
  %.phi.trans.insert.i = getelementptr inbounds i8, ptr %0, i64 100
  %.pre5.i = load i32, ptr %.phi.trans.insert.i, align 4
  br label %_ZNK4llvm15SmallPtrSetImplIPKNS_8MCSymbolEE5countES3_.exit

22:                                               ; preds = %20
  %23 = icmp eq ptr %.pre.i, %.pre4.i
  %24 = getelementptr inbounds i8, ptr %0, i64 100
  %25 = load i32, ptr %24, align 4
  %26 = getelementptr inbounds i8, ptr %0, i64 96
  %27 = load i32, ptr %26, align 8
  %.v.v.i14.i.i = select i1 %23, i32 %25, i32 %27
  %.v.i15.i.i = zext i32 %.v.v.i14.i.i to i64
  %28 = getelementptr inbounds ptr, ptr %.pre.i, i64 %.v.i15.i.i
  br label %_ZNK4llvm15SmallPtrSetImplIPKNS_8MCSymbolEE5countES3_.exit

_ZNK4llvm15SmallPtrSetImplIPKNS_8MCSymbolEE5countES3_.exit: ; preds = %.lr.ph.i.i, %._crit_edge.i.i, %._ZNK4llvm19SmallPtrSetImplBase8find_impEPKv.exit_crit_edge.i, %22
  %29 = phi i32 [ %12, %._crit_edge.i.i ], [ %25, %22 ], [ %.pre5.i, %._ZNK4llvm19SmallPtrSetImplBase8find_impEPKv.exit_crit_edge.i ], [ %12, %.lr.ph.i.i ]
  %30 = phi ptr [ %7, %._crit_edge.i.i ], [ %.pre4.i, %22 ], [ %.pre4.i, %._ZNK4llvm19SmallPtrSetImplBase8find_impEPKv.exit_crit_edge.i ], [ %7, %.lr.ph.i.i ]
  %31 = phi ptr [ %7, %._crit_edge.i.i ], [ %.pre.i, %22 ], [ %.pre.i, %._ZNK4llvm19SmallPtrSetImplBase8find_impEPKv.exit_crit_edge.i ], [ %7, %.lr.ph.i.i ]
  %.0.i.i = phi ptr [ %19, %._crit_edge.i.i ], [ %28, %22 ], [ %21, %._ZNK4llvm19SmallPtrSetImplBase8find_impEPKv.exit_crit_edge.i ], [ %.01118.i.i, %.lr.ph.i.i ]
  %32 = icmp eq ptr %31, %30
  %33 = getelementptr inbounds i8, ptr %0, i64 96
  %34 = load i32, ptr %33, align 8
  %.v.v.i.i = select i1 %32, i32 %29, i32 %34
  %.v.i.i = zext i32 %.v.v.i.i to i64
  %35 = getelementptr inbounds ptr, ptr %31, i64 %.v.i.i
  %.not19 = icmp eq ptr %.0.i.i, %35
  br i1 %.not19, label %36, label %61

36:                                               ; preds = %_ZNK4llvm15SmallPtrSetImplIPKNS_8MCSymbolEE5countES3_.exit
  %37 = getelementptr inbounds nuw i8, ptr %1, i64 8
  %38 = load i64, ptr %37, align 8
  %39 = and i64 %38, 28672
  %40 = icmp eq i64 %39, 8192
  br i1 %40, label %41, label %61

41:                                               ; preds = %36
  %42 = or i64 %38, 8
  store i64 %42, ptr %37, align 8
  %43 = getelementptr inbounds nuw i8, ptr %1, i64 24
  %44 = load ptr, ptr %43, align 8
  call void @llvm.memset.p0.i64(ptr noundef nonnull align 8 dereferenceable(28) %3, i8 0, i64 28, i1 false)
  %45 = call noundef zeroext i1 @_ZNK4llvm6MCExpr21evaluateAsRelocatableERNS_7MCValueEPKNS_11MCAssemblerEPKNS_7MCFixupE(ptr noundef nonnull align 8 dereferenceable(16) %44, ptr noundef nonnull align 8 dereferenceable(28) %3, ptr noundef null, ptr noundef null) #11
  %46 = getelementptr inbounds nuw i8, ptr %3, i64 8
  %47 = load ptr, ptr %46, align 8
  %.not12 = icmp eq ptr %47, null
  %or.cond = select i1 %45, i1 %.not12, i1 false
  %48 = getelementptr inbounds nuw i8, ptr %3, i64 24
  %49 = load i32, ptr %48, align 8
  %.not13 = icmp eq i32 %49, 0
  %or.cond18 = select i1 %or.cond, i1 %.not13, i1 false
  br i1 %or.cond18, label %50, label %61

50:                                               ; preds = %41
  %51 = load ptr, ptr %3, align 8
  %.not14 = icmp eq ptr %51, null
  br i1 %.not14, label %61, label %52

52:                                               ; preds = %50
  %53 = getelementptr inbounds nuw i8, ptr %51, i64 1
  %54 = load i32, ptr %53, align 1
  %55 = and i32 %54, 65535
  %.not15 = icmp eq i32 %55, 0
  br i1 %.not15, label %56, label %61

56:                                               ; preds = %52
  %57 = getelementptr inbounds nuw i8, ptr %51, i64 16
  %58 = load ptr, ptr %57, align 8
  %59 = call noundef zeroext i1 @_ZNK4llvm11MCAssembler11isThumbFuncEPKNS_8MCSymbolE(ptr noundef nonnull align 8 dereferenceable(372) %0, ptr noundef nonnull %58)
  br i1 %59, label %60, label %61

60:                                               ; preds = %56
  call void @_ZN4llvm15SmallPtrSetImplIPKNS_8MCSymbolEE6insertES3_(ptr dead_on_unwind nonnull writable sret(%"struct.std::pair") align 8 %4, ptr noundef nonnull align 8 dereferenceable(28) %5, ptr noundef nonnull %1)
  br label %61

61:                                               ; preds = %56, %52, %50, %41, %36, %_ZNK4llvm15SmallPtrSetImplIPKNS_8MCSymbolEE5countES3_.exit, %60
  %.0 = phi i1 [ true, %60 ], [ true, %_ZNK4llvm15SmallPtrSetImplIPKNS_8MCSymbolEE5countES3_.exit ], [ false, %36 ], [ false, %41 ], [ false, %50 ], [ false, %52 ], [ false, %56 ]
  ret i1 %.0
}